#include <math.h>
#include <stdio.h>
#include <stdlib.h>
#include <string.h>


void main()
{
	int *p,*q,a,b,k,m=0,i,j;
	q=(int*)malloc(10000*sizeof(int));
	scanf("%d",&k);
	for(i=0;i<k;i++)
	{
		m=0;
		p=q;
		scanf("%d %d",&a,&b);
		for(j=0;j<a*b;j++)
		{
			scanf("%d",p+j);
		}
		for(j=0;j<b;j++)
			m+=*(p+j)+*(p+a*b-1-j);
		for(j=1;j<a-1;j++)
			m+=*(p+j*b)+*(p+j*b+b-1);
		printf("%d\n",m);
	}
}