; ModuleID = '6/73.c'
source_filename = "6/73.c"
target datalayout = "e-m:e-p270:32:32-p271:32:32-p272:64:64-i64:64-f80:128-n8:16:32:64-S128"
target triple = "x86_64-pc-linux-gnu"

@.str = private unnamed_addr constant [3 x i8] c"%d\00", align 1
@.str.1 = private unnamed_addr constant [6 x i8] c"%d %d\00", align 1
@.str.2 = private unnamed_addr constant [4 x i8] c"%d\0A\00", align 1

; Function Attrs: noinline nounwind uwtable
define dso_local void @main() #0 {
  %1 = alloca i32*, align 8
  %2 = alloca i32*, align 8
  %3 = alloca i32, align 4
  %4 = alloca i32, align 4
  %5 = alloca i32, align 4
  %6 = alloca i32, align 4
  %7 = alloca i32, align 4
  %8 = alloca i32, align 4
  store i32 0, i32* %6, align 4
  %9 = call noalias i8* @malloc(i64 40000) #3
  %10 = bitcast i8* %9 to i32*
  store i32* %10, i32** %2, align 8
  %11 = call i32 (i8*, ...) @__isoc99_scanf(i8* getelementptr inbounds ([3 x i8], [3 x i8]* @.str, i64 0, i64 0), i32* %5)
  store i32 0, i32* %7, align 4
  br label %12

12:                                               ; preds = %97, %0
  %13 = load i32, i32* %7, align 4
  %14 = load i32, i32* %5, align 4
  %15 = icmp slt i32 %13, %14
  br i1 %15, label %16, label %100

16:                                               ; preds = %12
  store i32 0, i32* %6, align 4
  %17 = load i32*, i32** %2, align 8
  store i32* %17, i32** %1, align 8
  %18 = call i32 (i8*, ...) @__isoc99_scanf(i8* getelementptr inbounds ([6 x i8], [6 x i8]* @.str.1, i64 0, i64 0), i32* %3, i32* %4)
  store i32 0, i32* %8, align 4
  br label %19

19:                                               ; preds = %31, %16
  %20 = load i32, i32* %8, align 4
  %21 = load i32, i32* %3, align 4
  %22 = load i32, i32* %4, align 4
  %23 = mul nsw i32 %21, %22
  %24 = icmp slt i32 %20, %23
  br i1 %24, label %25, label %34

25:                                               ; preds = %19
  %26 = load i32*, i32** %1, align 8
  %27 = load i32, i32* %8, align 4
  %28 = sext i32 %27 to i64
  %29 = getelementptr inbounds i32, i32* %26, i64 %28
  %30 = call i32 (i8*, ...) @__isoc99_scanf(i8* getelementptr inbounds ([3 x i8], [3 x i8]* @.str, i64 0, i64 0), i32* %29)
  br label %31

31:                                               ; preds = %25
  %32 = load i32, i32* %8, align 4
  %33 = add nsw i32 %32, 1
  store i32 %33, i32* %8, align 4
  br label %19

34:                                               ; preds = %19
  store i32 0, i32* %8, align 4
  br label %35

35:                                               ; preds = %60, %34
  %36 = load i32, i32* %8, align 4
  %37 = load i32, i32* %4, align 4
  %38 = icmp slt i32 %36, %37
  br i1 %38, label %39, label %63

39:                                               ; preds = %35
  %40 = load i32*, i32** %1, align 8
  %41 = load i32, i32* %8, align 4
  %42 = sext i32 %41 to i64
  %43 = getelementptr inbounds i32, i32* %40, i64 %42
  %44 = load i32, i32* %43, align 4
  %45 = load i32*, i32** %1, align 8
  %46 = load i32, i32* %3, align 4
  %47 = load i32, i32* %4, align 4
  %48 = mul nsw i32 %46, %47
  %49 = sext i32 %48 to i64
  %50 = getelementptr inbounds i32, i32* %45, i64 %49
  %51 = getelementptr inbounds i32, i32* %50, i64 -1
  %52 = load i32, i32* %8, align 4
  %53 = sext i32 %52 to i64
  %54 = sub i64 0, %53
  %55 = getelementptr inbounds i32, i32* %51, i64 %54
  %56 = load i32, i32* %55, align 4
  %57 = add nsw i32 %44, %56
  %58 = load i32, i32* %6, align 4
  %59 = add nsw i32 %58, %57
  store i32 %59, i32* %6, align 4
  br label %60

60:                                               ; preds = %39
  %61 = load i32, i32* %8, align 4
  %62 = add nsw i32 %61, 1
  store i32 %62, i32* %8, align 4
  br label %35

63:                                               ; preds = %35
  store i32 1, i32* %8, align 4
  br label %64

64:                                               ; preds = %91, %63
  %65 = load i32, i32* %8, align 4
  %66 = load i32, i32* %3, align 4
  %67 = sub nsw i32 %66, 1
  %68 = icmp slt i32 %65, %67
  br i1 %68, label %69, label %94

69:                                               ; preds = %64
  %70 = load i32*, i32** %1, align 8
  %71 = load i32, i32* %8, align 4
  %72 = load i32, i32* %4, align 4
  %73 = mul nsw i32 %71, %72
  %74 = sext i32 %73 to i64
  %75 = getelementptr inbounds i32, i32* %70, i64 %74
  %76 = load i32, i32* %75, align 4
  %77 = load i32*, i32** %1, align 8
  %78 = load i32, i32* %8, align 4
  %79 = load i32, i32* %4, align 4
  %80 = mul nsw i32 %78, %79
  %81 = sext i32 %80 to i64
  %82 = getelementptr inbounds i32, i32* %77, i64 %81
  %83 = load i32, i32* %4, align 4
  %84 = sext i32 %83 to i64
  %85 = getelementptr inbounds i32, i32* %82, i64 %84
  %86 = getelementptr inbounds i32, i32* %85, i64 -1
  %87 = load i32, i32* %86, align 4
  %88 = add nsw i32 %76, %87
  %89 = load i32, i32* %6, align 4
  %90 = add nsw i32 %89, %88
  store i32 %90, i32* %6, align 4
  br label %91

91:                                               ; preds = %69
  %92 = load i32, i32* %8, align 4
  %93 = add nsw i32 %92, 1
  store i32 %93, i32* %8, align 4
  br label %64

94:                                               ; preds = %64
  %95 = load i32, i32* %6, align 4
  %96 = call i32 (i8*, ...) @printf(i8* getelementptr inbounds ([4 x i8], [4 x i8]* @.str.2, i64 0, i64 0), i32 %95)
  br label %97

97:                                               ; preds = %94
  %98 = load i32, i32* %7, align 4
  %99 = add nsw i32 %98, 1
  store i32 %99, i32* %7, align 4
  br label %12

100:                                              ; preds = %12
  ret void
}

; Function Attrs: nounwind
declare dso_local noalias i8* @malloc(i64) #1

declare dso_local i32 @__isoc99_scanf(i8*, ...) #2

declare dso_local i32 @printf(i8*, ...) #2


!llvm.module.flags = !{!0}
!llvm.ident = !{!1}

!0 = !{i32 1, !"wchar_size", i32 4}
!1 = !{!"clang version 10.0.0-4ubuntu1 "}
